target datalayout = "e-m:e-p270:32:32-p271:32:32-p272:64:64-i64:64-i128:128-f80:128-n8:16:32:64-S128"
target triple = "x86_64-pc-linux-gnu"

%struct._packet_info = type { ptr, ptr, i32, i32, %struct.nstime_t, %struct.nstime_t, %struct.nstime_t, i8, ptr, ptr, ptr, ptr, %struct._address, %struct._address, %struct._address, %struct._address, %struct._address, %struct._address, i32, ptr, i8, [3 x i8], %struct.anon, i32, i32, i32, i32, ptr, i8, ptr, ptr, i16, i16, i32, i32, i16, i32, i32, ptr, ptr, ptr, i8, i8, i16, i16, i16, i32, i16, i16, ptr, ptr, ptr, ptr, ptr, i32, i32 }
%struct.nstime_t = type { i64, i32 }
%struct._address = type { i32, i32, ptr, ptr }
%struct.anon = type { i8, [3 x i8] }

@hf_nbdgm_type = internal global i32 0, align 4
@hf_nbdgm_flags = internal global i32 0, align 4
@hf_nbdgm_datagram_id = internal global i32 0, align 4
@hf_nbdgm_src_ip = internal global i32 0, align 4
@hf_nbdgm_src_port = internal global i32 0, align 4
@hf_nbdgm_datagram_length = internal global i32 0, align 4
@hf_nbdgm_packet_offset = internal global i32 0, align 4
@hf_nbdgm_error_code = internal global i32 0, align 4
@hf_nbdgm_source_name = internal global i32 0, align 4
@hf_nbdgm_destination_name = internal global i32 0, align 4
@ett_nbdgm = internal global i32 0, align 4
@ett_nbdgm_flags = internal global i32 0, align 4
@.str.167 = private unnamed_addr constant [5 x i8] c"NBDS\00", align 1
@proto_nbdgm = internal global i32 0, align 4
@netbios_heur_subdissector_list = internal global ptr null, align 8
@.str.270 = private unnamed_addr constant [8 x i8] c"%s (%s)\00", align 1
@dissect_nbdgm.flags = internal constant [4 x ptr] [ptr @hf_nbdgm_fragment, ptr @hf_nbdgm_first, ptr @hf_nbdgm_node_type, ptr null], align 16
@.str.278 = private unnamed_addr constant [30 x i8] c"Unknown message type (0x%02X)\00", align 1

; Function Attrs: null_pointer_is_valid sspstrong uwtable
define internal void @dissect_netbios_payload(ptr noundef %0, ptr noundef %1, ptr noundef %2) #0 {
  %4 = alloca ptr, align 8
  %5 = alloca ptr, align 8
  %6 = alloca ptr, align 8
  %7 = alloca ptr, align 8
  store ptr %0, ptr %4, align 8
  store ptr %1, ptr %5, align 8
  store ptr %2, ptr %6, align 8
  call void @llvm.lifetime.start.p0(i64 8, ptr %7) #8
  %8 = load ptr, ptr @netbios_heur_subdissector_list, align 8
  %9 = load ptr, ptr %4, align 8
  %10 = load ptr, ptr %5, align 8
  %11 = load ptr, ptr %6, align 8
  %12 = call zeroext i1 @dissector_try_heuristic(ptr noundef %8, ptr noundef %9, ptr noundef %10, ptr noundef %11, ptr noundef %7, ptr noundef null)
  br i1 %12, label %18, label %13

13:                                               ; preds = %3
  %14 = load ptr, ptr %4, align 8
  %15 = load ptr, ptr %5, align 8
  %16 = load ptr, ptr %6, align 8
  %17 = call i32 @call_data_dissector(ptr noundef %14, ptr noundef %15, ptr noundef %16)
  br label %18

18:                                               ; preds = %13, %3
  call void @llvm.lifetime.end.p0(i64 8, ptr %7) #8
  ret void
}

; Function Attrs: null_pointer_is_valid sspstrong uwtable
define internal void @add_name_and_type(ptr noundef %0, ptr noundef %1, i32 noundef %2, i32 noundef %3, i32 noundef %4, ptr noundef %5, i32 noundef %6) #0 {
  %8 = alloca ptr, align 8
  %9 = alloca ptr, align 8
  %10 = alloca i32, align 4
  %11 = alloca i32, align 4
  %12 = alloca i32, align 4
  %13 = alloca ptr, align 8
  %14 = alloca i32, align 4
  store ptr %0, ptr %8, align 8
  store ptr %1, ptr %9, align 8
  store i32 %2, ptr %10, align 4
  store i32 %3, ptr %11, align 4
  store i32 %4, ptr %12, align 4
  store ptr %5, ptr %13, align 8
  store i32 %6, ptr %14, align 4
  %15 = load i32, ptr %14, align 4
  %16 = icmp ne i32 %15, -1
  br i1 %16, label %17, label %28

17:                                               ; preds = %7
  %18 = load ptr, ptr %8, align 8
  %19 = load i32, ptr %12, align 4
  %20 = load ptr, ptr %9, align 8
  %21 = load i32, ptr %10, align 4
  %22 = load i32, ptr %11, align 4
  %23 = load ptr, ptr %13, align 8
  %24 = load ptr, ptr %13, align 8
  %25 = load i32, ptr %14, align 4
  %26 = call ptr @netbios_name_type_descr(i32 noundef %25)
  %27 = call ptr (ptr, i32, ptr, i32, i32, ptr, ptr, ...) @proto_tree_add_string_format_value(ptr noundef %18, i32 noundef %19, ptr noundef %20, i32 noundef %21, i32 noundef %22, ptr noundef %23, ptr noundef @.str.270, ptr noundef %24, ptr noundef %26)
  br label %36

28:                                               ; preds = %7
  %29 = load ptr, ptr %8, align 8
  %30 = load i32, ptr %12, align 4
  %31 = load ptr, ptr %9, align 8
  %32 = load i32, ptr %10, align 4
  %33 = load i32, ptr %11, align 4
  %34 = load ptr, ptr %13, align 8
  %35 = call ptr @proto_tree_add_string(ptr noundef %29, i32 noundef %30, ptr noundef %31, i32 noundef %32, i32 noundef %33, ptr noundef %34)
  br label %36

36:                                               ; preds = %28, %17
  ret void
}

; Function Attrs: null_pointer_is_valid sspstrong uwtable
define internal i32 @dissect_nbdgm(ptr noundef %0, ptr noundef %1, ptr noundef %2, ptr noundef %3) #0 {
  %5 = alloca ptr, align 8
  %6 = alloca ptr, align 8
  %7 = alloca ptr, align 8
  %8 = alloca ptr, align 8
  %9 = alloca i32, align 4
  %10 = alloca ptr, align 8
  %11 = alloca ptr, align 8
  %12 = alloca ptr, align 8
  %13 = alloca i32, align 4
  %14 = alloca ptr, align 8
  %15 = alloca i32, align 4
  %16 = alloca i32, align 4
  store ptr %0, ptr %5, align 8
  store ptr %1, ptr %6, align 8
  store ptr %2, ptr %7, align 8
  store ptr %3, ptr %8, align 8
  call void @llvm.lifetime.start.p0(i64 4, ptr %9) #8
  store i32 0, ptr %9, align 4
  call void @llvm.lifetime.start.p0(i64 8, ptr %10) #8
  call void @llvm.lifetime.start.p0(i64 8, ptr %11) #8
  call void @llvm.lifetime.start.p0(i64 8, ptr %12) #8
  call void @llvm.lifetime.start.p0(i64 4, ptr %13) #8
  call void @llvm.lifetime.start.p0(i64 8, ptr %14) #8
  call void @llvm.lifetime.start.p0(i64 4, ptr %15) #8
  call void @llvm.lifetime.start.p0(i64 4, ptr %16) #8
  %17 = load ptr, ptr %6, align 8
  %18 = getelementptr inbounds nuw %struct._packet_info, ptr %17, i32 0, i32 1
  %19 = load ptr, ptr %18, align 8
  call void @col_set_str(ptr noundef %19, i32 noundef 35, ptr noundef @.str.167)
  %20 = load ptr, ptr %6, align 8
  %21 = getelementptr inbounds nuw %struct._packet_info, ptr %20, i32 0, i32 1
  %22 = load ptr, ptr %21, align 8
  call void @col_clear(ptr noundef %22, i32 noundef 25)
  %23 = load ptr, ptr %7, align 8
  %24 = load i32, ptr @proto_nbdgm, align 4
  %25 = load ptr, ptr %5, align 8
  %26 = load i32, ptr %9, align 4
  %27 = call ptr @proto_tree_add_item(ptr noundef %23, i32 noundef %24, ptr noundef %25, i32 noundef %26, i32 noundef -1, i32 noundef 0)
  store ptr %27, ptr %11, align 8
  %28 = load ptr, ptr %11, align 8
  %29 = load i32, ptr @ett_nbdgm, align 4
  %30 = call ptr @proto_item_add_subtree(ptr noundef %28, i32 noundef %29)
  store ptr %30, ptr %10, align 8
  %31 = load ptr, ptr %10, align 8
  %32 = load i32, ptr @hf_nbdgm_type, align 4
  %33 = load ptr, ptr %5, align 8
  %34 = load i32, ptr %9, align 4
  %35 = call ptr @proto_tree_add_item_ret_uint(ptr noundef %31, i32 noundef %32, ptr noundef %33, i32 noundef %34, i32 noundef 1, i32 noundef 0, ptr noundef %13)
  %36 = load ptr, ptr %6, align 8
  %37 = getelementptr inbounds nuw %struct._packet_info, ptr %36, i32 0, i32 1
  %38 = load ptr, ptr %37, align 8
  %39 = load i32, ptr %13, align 4
  %40 = call ptr @val_to_str(i32 noundef %39, ptr noundef @nbds_msgtype_vals, ptr noundef @.str.278)
  call void @col_add_str(ptr noundef %38, i32 noundef 25, ptr noundef %40)
  %41 = load ptr, ptr %10, align 8
  %42 = load ptr, ptr %5, align 8
  %43 = load i32, ptr %9, align 4
  %44 = add i32 %43, 1
  %45 = load i32, ptr @hf_nbdgm_flags, align 4
  %46 = load i32, ptr @ett_nbdgm_flags, align 4
  %47 = call ptr @proto_tree_add_bitmask(ptr noundef %41, ptr noundef %42, i32 noundef %44, i32 noundef %45, i32 noundef %46, ptr noundef @dissect_nbdgm.flags, i32 noundef 0)
  %48 = load ptr, ptr %10, align 8
  %49 = load i32, ptr @hf_nbdgm_datagram_id, align 4
  %50 = load ptr, ptr %5, align 8
  %51 = load i32, ptr %9, align 4
  %52 = add i32 %51, 2
  %53 = call ptr @proto_tree_add_item(ptr noundef %48, i32 noundef %49, ptr noundef %50, i32 noundef %52, i32 noundef 2, i32 noundef 0)
  %54 = load ptr, ptr %10, align 8
  %55 = load i32, ptr @hf_nbdgm_src_ip, align 4
  %56 = load ptr, ptr %5, align 8
  %57 = load i32, ptr %9, align 4
  %58 = add i32 %57, 4
  %59 = call ptr @proto_tree_add_item(ptr noundef %54, i32 noundef %55, ptr noundef %56, i32 noundef %58, i32 noundef 4, i32 noundef 0)
  %60 = load ptr, ptr %10, align 8
  %61 = load i32, ptr @hf_nbdgm_src_port, align 4
  %62 = load ptr, ptr %5, align 8
  %63 = load i32, ptr %9, align 4
  %64 = add i32 %63, 8
  %65 = call ptr @proto_tree_add_item(ptr noundef %60, i32 noundef %61, ptr noundef %62, i32 noundef %64, i32 noundef 2, i32 noundef 0)
  %66 = load i32, ptr %9, align 4
  %67 = add i32 %66, 10
  store i32 %67, ptr %9, align 4
  %68 = load i32, ptr %13, align 4
  switch i32 %68, label %158 [
    i32 16, label %69
    i32 17, label %69
    i32 18, label %69
    i32 19, label %126
    i32 20, label %136
    i32 21, label %136
    i32 22, label %136
  ]

69:                                               ; preds = %4, %4, %4
  %70 = load ptr, ptr %10, align 8
  %71 = load i32, ptr @hf_nbdgm_datagram_length, align 4
  %72 = load ptr, ptr %5, align 8
  %73 = load i32, ptr %9, align 4
  %74 = call ptr @proto_tree_add_item(ptr noundef %70, i32 noundef %71, ptr noundef %72, i32 noundef %73, i32 noundef 2, i32 noundef 0)
  %75 = load i32, ptr %9, align 4
  %76 = add i32 %75, 2
  store i32 %76, ptr %9, align 4
  %77 = load ptr, ptr %10, align 8
  %78 = load i32, ptr @hf_nbdgm_packet_offset, align 4
  %79 = load ptr, ptr %5, align 8
  %80 = load i32, ptr %9, align 4
  %81 = call ptr @proto_tree_add_item(ptr noundef %77, i32 noundef %78, ptr noundef %79, i32 noundef %80, i32 noundef 2, i32 noundef 0)
  %82 = load i32, ptr %9, align 4
  %83 = add i32 %82, 2
  store i32 %83, ptr %9, align 4
  %84 = load ptr, ptr %6, align 8
  %85 = getelementptr inbounds nuw %struct._packet_info, ptr %84, i32 0, i32 51
  %86 = load ptr, ptr %85, align 8
  %87 = call noalias ptr @wmem_alloc(ptr noundef %86, i64 noundef 379) #9
  store ptr %87, ptr %14, align 8
  %88 = load ptr, ptr %5, align 8
  %89 = load i32, ptr %9, align 4
  %90 = load i32, ptr %9, align 4
  %91 = load ptr, ptr %14, align 8
  %92 = call i32 @get_nbns_name(ptr noundef %88, i32 noundef %89, i32 noundef %90, ptr noundef %91, i32 noundef 379, ptr noundef %15)
  store i32 %92, ptr %16, align 4
  %93 = load ptr, ptr %10, align 8
  %94 = load ptr, ptr %5, align 8
  %95 = load i32, ptr %9, align 4
  %96 = load i32, ptr %16, align 4
  %97 = load i32, ptr @hf_nbdgm_source_name, align 4
  %98 = load ptr, ptr %14, align 8
  %99 = load i32, ptr %15, align 4
  call void @add_name_and_type(ptr noundef %93, ptr noundef %94, i32 noundef %95, i32 noundef %96, i32 noundef %97, ptr noundef %98, i32 noundef %99)
  %100 = load i32, ptr %16, align 4
  %101 = load i32, ptr %9, align 4
  %102 = add i32 %101, %100
  store i32 %102, ptr %9, align 4
  %103 = load ptr, ptr %5, align 8
  %104 = load i32, ptr %9, align 4
  %105 = load i32, ptr %9, align 4
  %106 = load ptr, ptr %14, align 8
  %107 = call i32 @get_nbns_name(ptr noundef %103, i32 noundef %104, i32 noundef %105, ptr noundef %106, i32 noundef 379, ptr noundef %15)
  store i32 %107, ptr %16, align 4
  %108 = load ptr, ptr %10, align 8
  %109 = load ptr, ptr %5, align 8
  %110 = load i32, ptr %9, align 4
  %111 = load i32, ptr %16, align 4
  %112 = load i32, ptr @hf_nbdgm_destination_name, align 4
  %113 = load ptr, ptr %14, align 8
  %114 = load i32, ptr %15, align 4
  call void @add_name_and_type(ptr noundef %108, ptr noundef %109, i32 noundef %110, i32 noundef %111, i32 noundef %112, ptr noundef %113, i32 noundef %114)
  %115 = load i32, ptr %16, align 4
  %116 = load i32, ptr %9, align 4
  %117 = add i32 %116, %115
  store i32 %117, ptr %9, align 4
  %118 = load ptr, ptr %11, align 8
  %119 = load i32, ptr %9, align 4
  call void @proto_item_set_len(ptr noundef %118, i32 noundef %119)
  %120 = load ptr, ptr %5, align 8
  %121 = load i32, ptr %9, align 4
  %122 = call ptr @tvb_new_subset_remaining(ptr noundef %120, i32 noundef %121)
  store ptr %122, ptr %12, align 8
  %123 = load ptr, ptr %12, align 8
  %124 = load ptr, ptr %6, align 8
  %125 = load ptr, ptr %7, align 8
  call void @dissect_netbios_payload(ptr noundef %123, ptr noundef %124, ptr noundef %125)
  br label %158

126:                                              ; preds = %4
  %127 = load ptr, ptr %10, align 8
  %128 = load i32, ptr @hf_nbdgm_error_code, align 4
  %129 = load ptr, ptr %5, align 8
  %130 = load i32, ptr %9, align 4
  %131 = call ptr @proto_tree_add_item(ptr noundef %127, i32 noundef %128, ptr noundef %129, i32 noundef %130, i32 noundef 1, i32 noundef 0)
  %132 = load i32, ptr %9, align 4
  %133 = add i32 %132, 1
  store i32 %133, ptr %9, align 4
  %134 = load ptr, ptr %11, align 8
  %135 = load i32, ptr %9, align 4
  call void @proto_item_set_len(ptr noundef %134, i32 noundef %135)
  br label %158

136:                                              ; preds = %4, %4, %4
  %137 = load ptr, ptr %6, align 8
  %138 = getelementptr inbounds nuw %struct._packet_info, ptr %137, i32 0, i32 51
  %139 = load ptr, ptr %138, align 8
  %140 = call noalias ptr @wmem_alloc(ptr noundef %139, i64 noundef 379) #9
  store ptr %140, ptr %14, align 8
  %141 = load ptr, ptr %5, align 8
  %142 = load i32, ptr %9, align 4
  %143 = load i32, ptr %9, align 4
  %144 = load ptr, ptr %14, align 8
  %145 = call i32 @get_nbns_name(ptr noundef %141, i32 noundef %142, i32 noundef %143, ptr noundef %144, i32 noundef 379, ptr noundef %15)
  store i32 %145, ptr %16, align 4
  %146 = load ptr, ptr %10, align 8
  %147 = load ptr, ptr %5, align 8
  %148 = load i32, ptr %9, align 4
  %149 = load i32, ptr %16, align 4
  %150 = load i32, ptr @hf_nbdgm_destination_name, align 4
  %151 = load ptr, ptr %14, align 8
  %152 = load i32, ptr %15, align 4
  call void @add_name_and_type(ptr noundef %146, ptr noundef %147, i32 noundef %148, i32 noundef %149, i32 noundef %150, ptr noundef %151, i32 noundef %152)
  %153 = load i32, ptr %16, align 4
  %154 = load i32, ptr %9, align 4
  %155 = add i32 %154, %153
  store i32 %155, ptr %9, align 4
  %156 = load ptr, ptr %11, align 8
  %157 = load i32, ptr %9, align 4
  call void @proto_item_set_len(ptr noundef %156, i32 noundef %157)
  br label %158

158:                                              ; preds = %4, %136, %126, %69
  %159 = load ptr, ptr %5, align 8
  %160 = call i32 @tvb_captured_length(ptr noundef %159)
  call void @llvm.lifetime.end.p0(i64 4, ptr %16) #8
  call void @llvm.lifetime.end.p0(i64 4, ptr %15) #8
  call void @llvm.lifetime.end.p0(i64 8, ptr %14) #8
  call void @llvm.lifetime.end.p0(i64 4, ptr %13) #8
  call void @llvm.lifetime.end.p0(i64 8, ptr %12) #8
  call void @llvm.lifetime.end.p0(i64 8, ptr %11) #8
  call void @llvm.lifetime.end.p0(i64 8, ptr %10) #8
  call void @llvm.lifetime.end.p0(i64 4, ptr %9) #8
  ret i32 %160
}