; Function Attrs: null_pointer_is_valid sspstrong uwtable
define internal i32 @dissect_nbdgm(ptr noundef %0, ptr noundef %1, ptr noundef %2, ptr readnone captures(none) %3) #0 {
  %5 = alloca ptr, align 8
  %6 = alloca i32, align 4
  %7 = alloca i32, align 4
  call void @llvm.lifetime.start.p0(i64 4, ptr nonnull %6) #9
  call void @llvm.lifetime.start.p0(i64 4, ptr nonnull %7) #9
  %8 = getelementptr inbounds nuw i8, ptr %1, i64 8
  %9 = load ptr, ptr %8, align 8
  tail call void @col_set_str(ptr noundef %9, i32 noundef 35, ptr noundef nonnull @.str.167)
  %10 = load ptr, ptr %8, align 8
  tail call void @col_clear(ptr noundef %10, i32 noundef 25)
  %11 = load i32, ptr @proto_nbdgm, align 4
  %12 = tail call ptr @proto_tree_add_item(ptr noundef %2, i32 noundef %11, ptr noundef %0, i32 noundef 0, i32 noundef -1, i32 noundef 0)
  %13 = load i32, ptr @ett_nbdgm, align 4
  %14 = tail call ptr @proto_item_add_subtree(ptr noundef %12, i32 noundef %13)
  %15 = load i32, ptr @hf_nbdgm_type, align 4
  %16 = call ptr @proto_tree_add_item_ret_uint(ptr noundef %14, i32 noundef %15, ptr noundef %0, i32 noundef 0, i32 noundef 1, i32 noundef 0, ptr noundef nonnull %6)
  %17 = load ptr, ptr %8, align 8
  %18 = load i32, ptr %6, align 4
  %19 = call ptr @val_to_str(i32 noundef %18, ptr noundef nonnull @nbds_msgtype_vals, ptr noundef nonnull @.str.278)
  call void @col_add_str(ptr noundef %17, i32 noundef 25, ptr noundef %19)
  %20 = load i32, ptr @hf_nbdgm_flags, align 4
  %21 = load i32, ptr @ett_nbdgm_flags, align 4
  %22 = call ptr @proto_tree_add_bitmask(ptr noundef %14, ptr noundef %0, i32 noundef 1, i32 noundef %20, i32 noundef %21, ptr noundef nonnull @dissect_nbdgm.flags, i32 noundef 0)
  %23 = load i32, ptr @hf_nbdgm_datagram_id, align 4
  %24 = call ptr @proto_tree_add_item(ptr noundef %14, i32 noundef %23, ptr noundef %0, i32 noundef 2, i32 noundef 2, i32 noundef 0)
  %25 = load i32, ptr @hf_nbdgm_src_ip, align 4
  %26 = call ptr @proto_tree_add_item(ptr noundef %14, i32 noundef %25, ptr noundef %0, i32 noundef 4, i32 noundef 4, i32 noundef 0)
  %27 = load i32, ptr @hf_nbdgm_src_port, align 4
  %28 = call ptr @proto_tree_add_item(ptr noundef %14, i32 noundef %27, ptr noundef %0, i32 noundef 8, i32 noundef 2, i32 noundef 0)
  %29 = load i32, ptr %6, align 4
  switch i32 %29, label %77 [
    i32 16, label %30
    i32 17, label %30
    i32 18, label %30
    i32 19, label %61
    i32 20, label %64
    i32 21, label %64
    i32 22, label %64
  ]

30:                                               ; preds = %4, %4, %4
  %31 = load i32, ptr @hf_nbdgm_datagram_length, align 4
  %32 = call ptr @proto_tree_add_item(ptr noundef %14, i32 noundef %31, ptr noundef %0, i32 noundef 10, i32 noundef 2, i32 noundef 0)
  %33 = load i32, ptr @hf_nbdgm_packet_offset, align 4
  %34 = call ptr @proto_tree_add_item(ptr noundef %14, i32 noundef %33, ptr noundef %0, i32 noundef 12, i32 noundef 2, i32 noundef 0)
  %35 = getelementptr inbounds nuw i8, ptr %1, i64 408
  %36 = load ptr, ptr %35, align 8
  %37 = call noalias dereferenceable_or_null(379) ptr @wmem_alloc(ptr noundef %36, i64 noundef 379) #10
  %38 = call fastcc i32 @get_nbns_name(ptr noundef %0, i32 noundef 14, i32 noundef 14, ptr noundef %37, i32 noundef 379, ptr noundef nonnull %7)
  %39 = load i32, ptr @hf_nbdgm_source_name, align 4
  %40 = load i32, ptr %7, align 4
  %.not.i = icmp eq i32 %40, -1
  br i1 %.not.i, label %44, label %41

41:                                               ; preds = %30
  %42 = call ptr @netbios_name_type_descr(i32 noundef %40)
  %43 = call ptr (ptr, i32, ptr, i32, i32, ptr, ptr, ...) @proto_tree_add_string_format_value(ptr noundef %14, i32 noundef %39, ptr noundef %0, i32 noundef 14, i32 noundef %38, ptr noundef %37, ptr noundef nonnull @.str.270, ptr noundef %37, ptr noundef %42)
  br label %add_name_and_type.exit

44:                                               ; preds = %30
  %45 = call ptr @proto_tree_add_string(ptr noundef %14, i32 noundef %39, ptr noundef %0, i32 noundef 14, i32 noundef %38, ptr noundef %37)
  br label %add_name_and_type.exit

add_name_and_type.exit:                           ; preds = %41, %44
  %46 = add i32 %38, 14
  %47 = call fastcc i32 @get_nbns_name(ptr noundef %0, i32 noundef %46, i32 noundef %46, ptr noundef %37, i32 noundef 379, ptr noundef nonnull %7)
  %48 = load i32, ptr @hf_nbdgm_destination_name, align 4
  %49 = load i32, ptr %7, align 4
  %.not.i81 = icmp eq i32 %49, -1
  br i1 %.not.i81, label %53, label %50

50:                                               ; preds = %add_name_and_type.exit
  %51 = call ptr @netbios_name_type_descr(i32 noundef %49)
  %52 = call ptr (ptr, i32, ptr, i32, i32, ptr, ptr, ...) @proto_tree_add_string_format_value(ptr noundef %14, i32 noundef %48, ptr noundef %0, i32 noundef %46, i32 noundef %47, ptr noundef %37, ptr noundef nonnull @.str.270, ptr noundef %37, ptr noundef %51)
  br label %add_name_and_type.exit82

53:                                               ; preds = %add_name_and_type.exit
  %54 = call ptr @proto_tree_add_string(ptr noundef %14, i32 noundef %48, ptr noundef %0, i32 noundef %46, i32 noundef %47, ptr noundef %37)
  br label %add_name_and_type.exit82

add_name_and_type.exit82:                         ; preds = %50, %53
  %55 = add i32 %47, %46
  call void @proto_item_set_len(ptr noundef %12, i32 noundef %55)
  %56 = call ptr @tvb_new_subset_remaining(ptr noundef %0, i32 noundef %55)
  call void @llvm.lifetime.start.p0(i64 8, ptr nonnull %5) #9
  %57 = load ptr, ptr @netbios_heur_subdissector_list, align 8
  %58 = call zeroext i1 @dissector_try_heuristic(ptr noundef %57, ptr noundef %56, ptr noundef %1, ptr noundef %2, ptr noundef nonnull %5, ptr noundef null)
  br i1 %58, label %dissect_netbios_payload.exit, label %59

59:                                               ; preds = %add_name_and_type.exit82
  %60 = call i32 @call_data_dissector(ptr noundef %56, ptr noundef %1, ptr noundef %2)
  br label %dissect_netbios_payload.exit

dissect_netbios_payload.exit:                     ; preds = %add_name_and_type.exit82, %59
  call void @llvm.lifetime.end.p0(i64 8, ptr nonnull %5) #9
  br label %77

61:                                               ; preds = %4
  %62 = load i32, ptr @hf_nbdgm_error_code, align 4
  %63 = call ptr @proto_tree_add_item(ptr noundef %14, i32 noundef %62, ptr noundef %0, i32 noundef 10, i32 noundef 1, i32 noundef 0)
  call void @proto_item_set_len(ptr noundef %12, i32 noundef 11)
  br label %77

64:                                               ; preds = %4, %4, %4
  %65 = getelementptr inbounds nuw i8, ptr %1, i64 408
  %66 = load ptr, ptr %65, align 8
  %67 = call noalias dereferenceable_or_null(379) ptr @wmem_alloc(ptr noundef %66, i64 noundef 379) #10
  %68 = call fastcc i32 @get_nbns_name(ptr noundef %0, i32 noundef 10, i32 noundef 10, ptr noundef %67, i32 noundef 379, ptr noundef nonnull %7)
  %69 = load i32, ptr @hf_nbdgm_destination_name, align 4
  %70 = load i32, ptr %7, align 4
  %.not.i83 = icmp eq i32 %70, -1
  br i1 %.not.i83, label %74, label %71

71:                                               ; preds = %64
  %72 = call ptr @netbios_name_type_descr(i32 noundef %70)
  %73 = call ptr (ptr, i32, ptr, i32, i32, ptr, ptr, ...) @proto_tree_add_string_format_value(ptr noundef %14, i32 noundef %69, ptr noundef %0, i32 noundef 10, i32 noundef %68, ptr noundef %67, ptr noundef nonnull @.str.270, ptr noundef %67, ptr noundef %72)
  br label %add_name_and_type.exit84

74:                                               ; preds = %64
  %75 = call ptr @proto_tree_add_string(ptr noundef %14, i32 noundef %69, ptr noundef %0, i32 noundef 10, i32 noundef %68, ptr noundef %67)
  br label %add_name_and_type.exit84

add_name_and_type.exit84:                         ; preds = %71, %74
  %76 = add i32 %68, 10
  call void @proto_item_set_len(ptr noundef %12, i32 noundef %76)
  br label %77

77:                                               ; preds = %add_name_and_type.exit84, %61, %dissect_netbios_payload.exit, %4
  %78 = call i32 @tvb_captured_length(ptr noundef %0)
  call void @llvm.lifetime.end.p0(i64 4, ptr nonnull %7) #9
  call void @llvm.lifetime.end.p0(i64 4, ptr nonnull %6) #9
  ret i32 %78
}